target datalayout = "e-m:e-p270:32:32-p271:32:32-p272:64:64-i64:64-i128:128-f80:128-n8:16:32:64-S128"
target triple = "x86_64-pc-linux-gnu"

%struct.client = type { i64, i64, ptr, i8, i8, i8, i8, i32, ptr, ptr, ptr, ptr, ptr, i64, i64, i32, ptr, i32, i32, ptr, i64, ptr, ptr, ptr, ptr, ptr, i32, i32, i64, ptr, i64, ptr, i64, i64, i64, i32, ptr, i64, i64, i32, i32, i32, i32, i64, i64, ptr, i64, i64, i64, i64, i64, i64, i64, i64, [41 x i8], i32, ptr, i32, i32, i64, %struct.multiState, %struct.blockingState, i64, ptr, ptr, ptr, ptr, ptr, ptr, ptr, ptr, ptr, ptr, ptr, ptr, ptr, ptr, i64, ptr, i64, i32, ptr, ptr, ptr, i64, %struct.listNode, i64, i64, i32, i64, ptr }
%struct.multiState = type { ptr, i32, i32, i32, i64, i32 }
%struct.blockingState = type { i32, i64, i32, ptr, i32, i32, i64, ptr, ptr, i64 }
%struct.listNode = type { ptr, ptr, ptr }
%struct.listIter = type { ptr, i32 }
%struct.watchedKey = type { %struct.listNode, ptr, ptr, ptr, i8 }
%struct.redisDb = type { ptr, ptr, ptr, ptr, ptr, ptr, ptr, i32, i64, i64, ptr }
%struct.dict = type { ptr, [2 x ptr], [2 x i64], i64, i16, [2 x i8], i16, [0 x ptr] }
%struct.redisObject = type { i32, i32, ptr }

; Function Attrs: nounwind uwtable
define dso_local void @touchWatchedKey(ptr noundef %0, ptr noundef %1) #0 {
  %3 = alloca ptr, align 8
  %4 = alloca ptr, align 8
  %5 = alloca ptr, align 8
  %6 = alloca %struct.listIter, align 8
  %7 = alloca ptr, align 8
  %8 = alloca i32, align 4
  %9 = alloca ptr, align 8
  %10 = alloca ptr, align 8
  store ptr %0, ptr %3, align 8, !tbaa !106
  store ptr %1, ptr %4, align 8, !tbaa !40
  call void @llvm.lifetime.start.p0(i64 8, ptr %5) #8
  call void @llvm.lifetime.start.p0(i64 16, ptr %6) #8
  call void @llvm.lifetime.start.p0(i64 8, ptr %7) #8
  %11 = load ptr, ptr %3, align 8, !tbaa !106
  %12 = getelementptr inbounds nuw %struct.redisDb, ptr %11, i32 0, i32 6
  %13 = load ptr, ptr %12, align 8, !tbaa !63
  %14 = getelementptr inbounds nuw %struct.dict, ptr %13, i32 0, i32 2
  %15 = getelementptr inbounds [2 x i64], ptr %14, i64 0, i64 0
  %16 = load i64, ptr %15, align 8, !tbaa !44
  %17 = load ptr, ptr %3, align 8, !tbaa !106
  %18 = getelementptr inbounds nuw %struct.redisDb, ptr %17, i32 0, i32 6
  %19 = load ptr, ptr %18, align 8, !tbaa !63
  %20 = getelementptr inbounds nuw %struct.dict, ptr %19, i32 0, i32 2
  %21 = getelementptr inbounds [2 x i64], ptr %20, i64 0, i64 1
  %22 = load i64, ptr %21, align 8, !tbaa !44
  %23 = add i64 %16, %22
  %24 = icmp eq i64 %23, 0
  br i1 %24, label %25, label %26

25:                                               ; preds = %2
  store i32 1, ptr %8, align 4
  br label %89

26:                                               ; preds = %2
  %27 = load ptr, ptr %3, align 8, !tbaa !106
  %28 = getelementptr inbounds nuw %struct.redisDb, ptr %27, i32 0, i32 6
  %29 = load ptr, ptr %28, align 8, !tbaa !63
  %30 = load ptr, ptr %4, align 8, !tbaa !40
  %31 = call ptr @dictFetchValue(ptr noundef %29, ptr noundef %30)
  store ptr %31, ptr %5, align 8, !tbaa !60
  %32 = load ptr, ptr %5, align 8, !tbaa !60
  %33 = icmp ne ptr %32, null
  br i1 %33, label %35, label %34

34:                                               ; preds = %26
  store i32 1, ptr %8, align 4
  br label %89

35:                                               ; preds = %26
  %36 = load ptr, ptr %5, align 8, !tbaa !60
  call void @listRewind(ptr noundef %36, ptr noundef %6)
  br label %37

37:                                               ; preds = %86, %35
  %38 = call ptr @listNext(ptr noundef %6)
  store ptr %38, ptr %7, align 8, !tbaa !56
  %39 = icmp ne ptr %38, null
  br i1 %39, label %40, label %88

40:                                               ; preds = %37
  call void @llvm.lifetime.start.p0(i64 8, ptr %9) #8
  %41 = load ptr, ptr %7, align 8, !tbaa !56
  %42 = getelementptr inbounds i8, ptr %41, i64 0
  store ptr %42, ptr %9, align 8, !tbaa !58
  call void @llvm.lifetime.start.p0(i64 8, ptr %10) #8
  %43 = load ptr, ptr %9, align 8, !tbaa !58
  %44 = getelementptr inbounds nuw %struct.watchedKey, ptr %43, i32 0, i32 3
  %45 = load ptr, ptr %44, align 8, !tbaa !104
  store ptr %45, ptr %10, align 8, !tbaa !5
  %46 = load ptr, ptr %9, align 8, !tbaa !58
  %47 = getelementptr inbounds nuw %struct.watchedKey, ptr %46, i32 0, i32 4
  %48 = load i8, ptr %47, align 8
  %49 = and i8 %48, 1
  %50 = zext i8 %49 to i32
  %51 = icmp ne i32 %50, 0
  br i1 %51, label %52, label %79

52:                                               ; preds = %40
  %53 = load ptr, ptr %3, align 8, !tbaa !106
  %54 = load ptr, ptr %9, align 8, !tbaa !58
  %55 = getelementptr inbounds nuw %struct.watchedKey, ptr %54, i32 0, i32 2
  %56 = load ptr, ptr %55, align 8, !tbaa !61
  %57 = icmp eq ptr %53, %56
  br i1 %57, label %58, label %78

58:                                               ; preds = %52
  %59 = load ptr, ptr %4, align 8, !tbaa !40
  %60 = load ptr, ptr %9, align 8, !tbaa !58
  %61 = getelementptr inbounds nuw %struct.watchedKey, ptr %60, i32 0, i32 1
  %62 = load ptr, ptr %61, align 8, !tbaa !66
  %63 = call i32 @equalStringObjects(ptr noundef %59, ptr noundef %62)
  %64 = icmp ne i32 %63, 0
  br i1 %64, label %65, label %78

65:                                               ; preds = %58
  %66 = load ptr, ptr %3, align 8, !tbaa !106
  %67 = load ptr, ptr %4, align 8, !tbaa !40
  %68 = getelementptr inbounds nuw %struct.redisObject, ptr %67, i32 0, i32 2
  %69 = load ptr, ptr %68, align 8, !tbaa !107
  %70 = call ptr @dbFind(ptr noundef %66, ptr noundef %69)
  %71 = icmp eq ptr %70, null
  br i1 %71, label %72, label %78

72:                                               ; preds = %65
  %73 = load ptr, ptr %9, align 8, !tbaa !58
  %74 = getelementptr inbounds nuw %struct.watchedKey, ptr %73, i32 0, i32 4
  %75 = load i8, ptr %74, align 8
  %76 = and i8 %75, -2
  %77 = or i8 %76, 0
  store i8 %77, ptr %74, align 8
  br label %85

78:                                               ; preds = %65, %58, %52
  store i32 3, ptr %8, align 4
  br label %86

79:                                               ; preds = %40
  %80 = load ptr, ptr %10, align 8, !tbaa !5
  %81 = getelementptr inbounds nuw %struct.client, ptr %80, i32 0, i32 1
  %82 = load i64, ptr %81, align 8, !tbaa !45
  %83 = or i64 %82, 32
  store i64 %83, ptr %81, align 8, !tbaa !45
  %84 = load ptr, ptr %10, align 8, !tbaa !5
  call void @unwatchAllKeys(ptr noundef %84)
  br label %85

85:                                               ; preds = %79, %72
  store i32 2, ptr %8, align 4
  br label %86, !llvm.loop !109

86:                                               ; preds = %85, %78
  call void @llvm.lifetime.end.p0(i64 8, ptr %10) #8
  call void @llvm.lifetime.end.p0(i64 8, ptr %9) #8
  %87 = load i32, ptr %8, align 4
  switch i32 %87, label %92 [
    i32 3, label %88
    i32 2, label %37
  ]

88:                                               ; preds = %86, %37
  store i32 0, ptr %8, align 4
  br label %89

89:                                               ; preds = %88, %34, %25
  call void @llvm.lifetime.end.p0(i64 8, ptr %7) #8
  call void @llvm.lifetime.end.p0(i64 16, ptr %6) #8
  call void @llvm.lifetime.end.p0(i64 8, ptr %5) #8
  %90 = load i32, ptr %8, align 4
  switch i32 %90, label %92 [
    i32 0, label %91
    i32 1, label %91
  ]

91:                                               ; preds = %89, %89
  ret void

92:                                               ; preds = %89, %86
  unreachable
}