; Function Attrs: nounwind uwtable
define dso_local void @touchWatchedKey(ptr noundef %0, ptr noundef %1) local_unnamed_addr #1 {
  %3 = alloca %struct.listIter, align 8
  call void @llvm.lifetime.start.p0(i64 16, ptr nonnull %3) #10
  %4 = getelementptr inbounds nuw i8, ptr %0, i64 48
  %5 = load ptr, ptr %4, align 8, !tbaa !57
  %6 = getelementptr inbounds nuw i8, ptr %5, i64 24
  %7 = load i64, ptr %6, align 8, !tbaa !98
  %8 = getelementptr inbounds nuw i8, ptr %5, i64 32
  %9 = load i64, ptr %8, align 8, !tbaa !98
  %10 = sub i64 0, %9
  %11 = icmp eq i64 %7, %10
  br i1 %11, label %.thread, label %12

12:                                               ; preds = %2
  %13 = tail call ptr @dictFetchValue(ptr noundef nonnull %5, ptr noundef %1) #10
  %.not = icmp eq ptr %13, null
  br i1 %.not, label %.thread, label %14

14:                                               ; preds = %12
  call void @listRewind(ptr noundef nonnull %13, ptr noundef nonnull %3) #10
  %15 = getelementptr inbounds nuw i8, ptr %1, i64 8
  %16 = call ptr @listNext(ptr noundef nonnull %3) #10
  %.not2127 = icmp eq ptr %16, null
  br i1 %.not2127, label %.thread, label %.lr.ph

.lr.ph:                                           ; preds = %14, %42
  %17 = phi ptr [ %43, %42 ], [ %16, %14 ]
  %18 = getelementptr inbounds nuw i8, ptr %17, i64 48
  %19 = load i8, ptr %18, align 8
  %20 = and i8 %19, 1
  %.not22 = icmp eq i8 %20, 0
  br i1 %.not22, label %36, label %21

21:                                               ; preds = %.lr.ph
  %22 = getelementptr inbounds nuw i8, ptr %17, i64 32
  %23 = load ptr, ptr %22, align 8, !tbaa !56
  %24 = icmp eq ptr %0, %23
  br i1 %24, label %25, label %.thread

25:                                               ; preds = %21
  %26 = getelementptr inbounds nuw i8, ptr %17, i64 24
  %27 = load ptr, ptr %26, align 8, !tbaa !60
  %28 = call i32 @equalStringObjects(ptr noundef %1, ptr noundef %27) #10
  %.not23 = icmp eq i32 %28, 0
  br i1 %.not23, label %.thread, label %29

29:                                               ; preds = %25
  %30 = load ptr, ptr %15, align 8, !tbaa !99
  %31 = call ptr @dbFind(ptr noundef %0, ptr noundef %30) #10
  %32 = icmp eq ptr %31, null
  br i1 %32, label %33, label %.thread

33:                                               ; preds = %29
  %34 = load i8, ptr %18, align 8
  %35 = and i8 %34, -2
  store i8 %35, ptr %18, align 8
  br label %42, !llvm.loop !101

36:                                               ; preds = %.lr.ph
  %37 = getelementptr inbounds nuw i8, ptr %17, i64 40
  %38 = load ptr, ptr %37, align 8, !tbaa !97
  %39 = getelementptr inbounds nuw i8, ptr %38, i64 8
  %40 = load i64, ptr %39, align 8, !tbaa !38
  %41 = or i64 %40, 32
  store i64 %41, ptr %39, align 8, !tbaa !38
  call void @unwatchAllKeys(ptr noundef %38)
  br label %42, !llvm.loop !101

42:                                               ; preds = %33, %36
  %43 = call ptr @listNext(ptr noundef nonnull %3) #10
  %.not21 = icmp eq ptr %43, null
  br i1 %.not21, label %.thread, label %.lr.ph

.thread:                                          ; preds = %42, %29, %25, %21, %14, %12, %2
  call void @llvm.lifetime.end.p0(i64 16, ptr nonnull %3) #10
  ret void
}